target datalayout = "e-m:e-p270:32:32-p271:32:32-p272:64:64-i64:64-i128:128-f80:128-n8:16:32:64-S128"
target triple = "x86_64-unknown-linux-gnu"

%class.symbol = type { ptr }
%class.ptr_vector.57 = type { %class.vector.58 }
%class.vector.58 = type { ptr }
%class.ast_context_params = type { %class.context_params, ptr }
%class.context_params = type { i32, i32, %"class.std::__cxx11::basic_string", %"class.std::__cxx11::basic_string", i8, i8, i8, i8, i8, i8, i8, i8, i8, i8, i8, %"class.std::__cxx11::basic_string" }
%"class.std::__cxx11::basic_string" = type { %"struct.std::__cxx11::basic_string<char>::_Alloc_hider", i64, %union.anon }
%"struct.std::__cxx11::basic_string<char>::_Alloc_hider" = type { ptr }
%union.anon = type { i64, [8 x i8] }
%class.svector.4 = type { %class.vector.5 }
%class.vector.5 = type { ptr }
%class.cmd_context = type { %class.progress_callback, %class.tactic_manager, %class.ast_printer_context, %class.ast_context_params, i8, %class.symbol, i8, i8, i8, i32, i8, i8, i8, i32, i8, i8, i8, i8, %class.scoped_ptr.83, %class.ref_vector_core.84, ptr, i8, i8, ptr, ptr, %class.check_logic, %class.stream_ref, %class.stream_ref, %class.map.87, %class.map.91, %class.scoped_ptr_vector, %class.map.97, %class.map.101, %class.map.105, %class.obj_map.109, %class.map.114, %class.map.118, %class.svector.122, %class.svector.4, %class.svector.4, %class.ptr_vector.124, %class.ptr_vector.124, %class.ptr_vector.57, %"class.std::vector", %class.ptr_vector.57, %class.svector.129, %class.scoped_ptr.131, %class.ref, %class.ref.132, %class.ref.133, %class.stopwatch, %class.scoped_ptr.134, %class.scoped_ptr.135 }
%class.progress_callback = type { ptr }
%class.tactic_manager = type { %class.map.65, %class.map.69, %class.map.73, %class.ptr_vector.77, %class.ptr_vector.79, %class.ptr_vector.81 }
%class.map.65 = type { %class.table2map.66 }
%class.table2map.66 = type { %class.core_hashtable.67 }
%class.core_hashtable.67 = type <{ ptr, i32, i32, i32, [4 x i8] }>
%class.map.69 = type { %class.table2map.70 }
%class.table2map.70 = type { %class.core_hashtable.71 }
%class.core_hashtable.71 = type <{ ptr, i32, i32, i32, [4 x i8] }>
%class.map.73 = type { %class.table2map.74 }
%class.table2map.74 = type { %class.core_hashtable.75 }
%class.core_hashtable.75 = type <{ ptr, i32, i32, i32, [4 x i8] }>
%class.ptr_vector.77 = type { %class.vector.78 }
%class.vector.78 = type { ptr }
%class.ptr_vector.79 = type { %class.vector.80 }
%class.vector.80 = type { ptr }
%class.ptr_vector.81 = type { %class.vector.82 }
%class.vector.82 = type { ptr }
%class.ast_printer_context = type { %class.ast_printer }
%class.ast_printer = type { ptr }
%class.scoped_ptr.83 = type { ptr }
%class.ref_vector_core.84 = type { %class.ptr_vector.85 }
%class.ptr_vector.85 = type { %class.vector.86 }
%class.vector.86 = type { ptr }
%class.check_logic = type { ptr }
%class.stream_ref = type <{ %"class.std::__cxx11::basic_string", ptr, %"class.std::__cxx11::basic_string", ptr, i8, [7 x i8] }>
%class.map.87 = type { %class.table2map.88 }
%class.table2map.88 = type { %class.core_hashtable.89 }
%class.core_hashtable.89 = type <{ ptr, i32, i32, i32, [4 x i8] }>
%class.map.91 = type { %class.table2map.92 }
%class.table2map.92 = type { %class.core_hashtable.93 }
%class.core_hashtable.93 = type <{ ptr, i32, i32, i32, [4 x i8] }>
%class.scoped_ptr_vector = type { %class.ptr_vector.95 }
%class.ptr_vector.95 = type { %class.vector.96 }
%class.vector.96 = type { ptr }
%class.map.97 = type { %class.table2map.98 }
%class.table2map.98 = type { %class.core_hashtable.99 }
%class.core_hashtable.99 = type <{ ptr, i32, i32, i32, [4 x i8] }>
%class.map.101 = type { %class.table2map.102 }
%class.table2map.102 = type { %class.core_hashtable.103 }
%class.core_hashtable.103 = type <{ ptr, i32, i32, i32, [4 x i8] }>
%class.map.105 = type { %class.table2map.106 }
%class.table2map.106 = type { %class.core_hashtable.107 }
%class.core_hashtable.107 = type <{ ptr, i32, i32, i32, [4 x i8] }>
%class.obj_map.109 = type { %class.core_hashtable.110 }
%class.core_hashtable.110 = type <{ ptr, i32, i32, i32, [4 x i8] }>
%class.map.114 = type { %class.table2map.115 }
%class.table2map.115 = type { %class.core_hashtable.116 }
%class.core_hashtable.116 = type <{ ptr, i32, i32, i32, [4 x i8] }>
%class.map.118 = type { %class.table2map.119 }
%class.table2map.119 = type { %class.core_hashtable.120 }
%class.core_hashtable.120 = type <{ ptr, i32, i32, i32, [4 x i8] }>
%class.svector.122 = type { %class.vector.123 }
%class.vector.123 = type { ptr }
%class.ptr_vector.124 = type { %class.vector.125 }
%class.vector.125 = type { ptr }
%"class.std::vector" = type { %"struct.std::_Vector_base" }
%"struct.std::_Vector_base" = type { %"struct.std::_Vector_base<std::__cxx11::basic_string<char>, std::allocator<std::__cxx11::basic_string<char>>>::_Vector_impl" }
%"struct.std::_Vector_base<std::__cxx11::basic_string<char>, std::allocator<std::__cxx11::basic_string<char>>>::_Vector_impl" = type { %"struct.std::_Vector_base<std::__cxx11::basic_string<char>, std::allocator<std::__cxx11::basic_string<char>>>::_Vector_impl_data" }
%"struct.std::_Vector_base<std::__cxx11::basic_string<char>, std::allocator<std::__cxx11::basic_string<char>>>::_Vector_impl_data" = type { ptr, ptr, ptr }
%class.svector.129 = type { %class.vector.130 }
%class.vector.130 = type { ptr }
%class.scoped_ptr.131 = type { ptr }
%class.ref = type { ptr }
%class.ref.132 = type { ptr }
%class.ref.133 = type { ptr }
%class.stopwatch = type <{ %"class.std::chrono::time_point", %"class.std::chrono::duration", i8, [7 x i8] }>
%"class.std::chrono::time_point" = type { %"class.std::chrono::duration" }
%"class.std::chrono::duration" = type { i64 }
%class.scoped_ptr.134 = type { ptr }
%class.scoped_ptr.135 = type { ptr }

; Function Attrs: mustprogress nounwind uwtable
define linkonce_odr hidden noundef i32 @_ZNK6vectorIP4exprLb0EjE4sizeEv(ptr noundef nonnull align 8 dereferenceable(8) %this) #5 comdat align 2 {
entry:
  %retval = alloca i32, align 4
  %this.addr = alloca ptr, align 8
  store ptr %this, ptr %this.addr, align 8
  %this1 = load ptr, ptr %this.addr, align 8
  %m_data = getelementptr inbounds %class.vector.58, ptr %this1, i32 0, i32 0
  %0 = load ptr, ptr %m_data, align 8
  %cmp = icmp eq ptr %0, null
  br i1 %cmp, label %if.then, label %if.end

if.then:                                          ; preds = %entry
  store i32 0, ptr %retval, align 4
  br label %return

if.end:                                           ; preds = %entry
  %m_data2 = getelementptr inbounds %class.vector.58, ptr %this1, i32 0, i32 0
  %1 = load ptr, ptr %m_data2, align 8
  %arrayidx = getelementptr inbounds i32, ptr %1, i64 -1
  %2 = load i32, ptr %arrayidx, align 4
  store i32 %2, ptr %retval, align 4
  br label %return

return:                                           ; preds = %if.end, %if.then
  %3 = load i32, ptr %retval, align 4
  ret i32 %3
}

; Function Attrs: mustprogress nounwind uwtable
define linkonce_odr hidden noundef ptr @_ZNK6vectorIP4exprLb0EjE3endEv(ptr noundef nonnull align 8 dereferenceable(8) %this) #5 comdat align 2 {
entry:
  %this.addr = alloca ptr, align 8
  store ptr %this, ptr %this.addr, align 8
  %this1 = load ptr, ptr %this.addr, align 8
  %m_data = getelementptr inbounds %class.vector.58, ptr %this1, i32 0, i32 0
  %0 = load ptr, ptr %m_data, align 8
  %call = call noundef i32 @_ZNK6vectorIP4exprLb0EjE4sizeEv(ptr noundef nonnull align 8 dereferenceable(8) %this1)
  %idx.ext = zext i32 %call to i64
  %add.ptr = getelementptr inbounds ptr, ptr %0, i64 %idx.ext
  ret ptr %add.ptr
}

; Function Attrs: mustprogress nounwind uwtable
define linkonce_odr hidden noundef ptr @_ZNK6vectorIP4exprLb0EjE5beginEv(ptr noundef nonnull align 8 dereferenceable(8) %this) #5 comdat align 2 {
entry:
  %this.addr = alloca ptr, align 8
  store ptr %this, ptr %this.addr, align 8
  %this1 = load ptr, ptr %this.addr, align 8
  %m_data = getelementptr inbounds %class.vector.58, ptr %this1, i32 0, i32 0
  %0 = load ptr, ptr %m_data, align 8
  ret ptr %0
}

; Function Attrs: mustprogress uwtable
define hidden void @_ZNK11cmd_context15dump_assertionsERSo(ptr noundef nonnull align 8 dereferenceable(872) %this, ptr noundef nonnull align 8 dereferenceable(8) %out) #4 align 2 {
entry:
  %this.addr = alloca ptr, align 8
  %out.addr = alloca ptr, align 8
  %__range1 = alloca ptr, align 8
  %__begin1 = alloca ptr, align 8
  %__end1 = alloca ptr, align 8
  %e = alloca ptr, align 8
  store ptr %this, ptr %this.addr, align 8
  store ptr %out, ptr %out.addr, align 8
  %this1 = load ptr, ptr %this.addr, align 8
  %m_assertions = getelementptr inbounds %class.cmd_context, ptr %this1, i32 0, i32 42
  store ptr %m_assertions, ptr %__range1, align 8
  %0 = load ptr, ptr %__range1, align 8
  %call = call noundef ptr @_ZNK6vectorIP4exprLb0EjE5beginEv(ptr noundef nonnull align 8 dereferenceable(8) %0)
  store ptr %call, ptr %__begin1, align 8
  %1 = load ptr, ptr %__range1, align 8
  %call2 = call noundef ptr @_ZNK6vectorIP4exprLb0EjE3endEv(ptr noundef nonnull align 8 dereferenceable(8) %1)
  store ptr %call2, ptr %__end1, align 8
  br label %for.cond

for.cond:                                         ; preds = %for.inc, %entry
  %2 = load ptr, ptr %__begin1, align 8
  %3 = load ptr, ptr %__end1, align 8
  %cmp = icmp ne ptr %2, %3
  br i1 %cmp, label %for.body, label %for.end

for.body:                                         ; preds = %for.cond
  %4 = load ptr, ptr %__begin1, align 8
  %5 = load ptr, ptr %4, align 8
  store ptr %5, ptr %e, align 8
  %6 = load ptr, ptr %out.addr, align 8
  %7 = load ptr, ptr %e, align 8
  %vtable = load ptr, ptr %this1, align 8
  %vfn = getelementptr inbounds ptr, ptr %vtable, i64 13
  %8 = load ptr, ptr %vfn, align 8
  call void %8(ptr noundef nonnull align 8 dereferenceable(872) %this1, ptr noundef nonnull align 8 dereferenceable(8) %6, ptr noundef %7, i32 noundef 0)
  %9 = load ptr, ptr %out.addr, align 8
  %call3 = call noundef nonnull align 8 dereferenceable(8) ptr @_ZNSolsEPFRSoS_E(ptr noundef nonnull align 8 dereferenceable(8) %9, ptr noundef @_ZSt4endlIcSt11char_traitsIcEERSt13basic_ostreamIT_T0_ES6_)
  br label %for.inc

for.inc:                                          ; preds = %for.body
  %10 = load ptr, ptr %__begin1, align 8
  %incdec.ptr = getelementptr inbounds ptr, ptr %10, i32 1
  store ptr %incdec.ptr, ptr %__begin1, align 8
  br label %for.cond

for.end:                                          ; preds = %for.cond
  ret void
}